libdbus-c++-1.so.0:_ZN4DBus10BusTimeout6toggleEv
libdbus-c++-1.so.0:_ZN4DBus10BusTimeoutC1EPNS_7Timeout8InternalEPNS_13BusDispatcherE
libdbus-c++-1.so.0:_ZN4DBus10BusTimeoutC2EPNS_7Timeout8InternalEPNS_13BusDispatcherE
libdbus-c++-1.so.0:_ZN4DBus10Connection10SessionBusEv
libdbus-c++-1.so.0:_ZN4DBus10Connection10add_filterERNS_4SlotIbRKNS_7MessageEEE
libdbus-c++-1.so.0:_ZN4DBus10Connection10disconnectEv
libdbus-c++-1.so.0:_ZN4DBus10Connection10send_asyncERNS_7MessageEi
libdbus-c++-1.so.0:_ZN4DBus10Connection11get_timeoutEv
libdbus-c++-1.so.0:_ZN4DBus10Connection11set_timeoutEi
libdbus-c++-1.so.0:_ZN4DBus10Connection11unique_nameEPKc
libdbus-c++-1.so.0:_ZN4DBus10Connection12register_busEv
libdbus-c++-1.so.0:_ZN4DBus10Connection12remove_matchEPKcb
libdbus-c++-1.so.0:_ZN4DBus10Connection12request_nameEPKci
libdbus-c++-1.so.0:_ZN4DBus10Connection13ActivationBusEv
libdbus-c++-1.so.0:_ZN4DBus10Connection13remove_filterERNS_4SlotIbRKNS_7MessageEEE
libdbus-c++-1.so.0:_ZN4DBus10Connection13send_blockingERNS_7MessageEi
libdbus-c++-1.so.0:_ZN4DBus10Connection13start_serviceEPKcm
libdbus-c++-1.so.0:_ZN4DBus10Connection15sender_unix_uidEPKc
libdbus-c++-1.so.0:_ZN4DBus10Connection18exit_on_disconnectEb
libdbus-c++-1.so.0:_ZN4DBus10Connection4sendERKNS_7MessageEPj
libdbus-c++-1.so.0:_ZN4DBus10Connection5flushEv
libdbus-c++-1.so.0:_ZN4DBus10Connection5namesB5cxx11Ev
libdbus-c++-1.so.0:_ZN4DBus10Connection5setupEPNS_10DispatcherE
libdbus-c++-1.so.0:_ZN4DBus10Connection8has_nameEPKc
libdbus-c++-1.so.0:_ZN4DBus10Connection9SystemBusEv
libdbus-c++-1.so.0:_ZN4DBus10Connection9add_matchEPKc
libdbus-c++-1.so.0:_ZN4DBus10ConnectionC1EPKcb
libdbus-c++-1.so.0:_ZN4DBus10ConnectionC1EPNS0_7PrivateE
libdbus-c++-1.so.0:_ZN4DBus10ConnectionC1ERKS0_
libdbus-c++-1.so.0:_ZN4DBus10ConnectionC2EPKcb
libdbus-c++-1.so.0:_ZN4DBus10ConnectionC2EPNS0_7PrivateE
libdbus-c++-1.so.0:_ZN4DBus10ConnectionC2ERKS0_
libdbus-c++-1.so.0:_ZN4DBus10ConnectionD0Ev
libdbus-c++-1.so.0:_ZN4DBus10ConnectionD1Ev
libdbus-c++-1.so.0:_ZN4DBus10ConnectionD2Ev
libdbus-c++-1.so.0:_ZN4DBus10Dispatcher16dispatch_pendingERNSt7__cxx114listIPNS_10Connection7PrivateESaIS5_EEE
libdbus-c++-1.so.0:_ZN4DBus10Dispatcher16dispatch_pendingEv
libdbus-c++-1.so.0:_ZN4DBus10Dispatcher16queue_connectionEPNS_10Connection7PrivateE
libdbus-c++-1.so.0:_ZN4DBus10Dispatcher25has_something_to_dispatchEv
libdbus-c++-1.so.0:_ZN4DBus11AdaptorBase14find_interfaceERKNSt7__cxx1112basic_stringIcSt11char_traitsIcESaIcEEE
libdbus-c++-1.so.0:_ZN4DBus11CallMessage4pathEPKc
libdbus-c++-1.so.0:_ZN4DBus11CallMessage6memberEPKc
libdbus-c++-1.so.0:_ZN4DBus11CallMessage9interfaceEPKc
libdbus-c++-1.so.0:_ZN4DBus11CallMessageC1EPKcS2_S2_S2_
libdbus-c++-1.so.0:_ZN4DBus11CallMessageC1Ev
libdbus-c++-1.so.0:_ZN4DBus11CallMessageC2EPKcS2_S2_S2_
libdbus-c++-1.so.0:_ZN4DBus11CallMessageC2Ev
libdbus-c++-1.so.0:_ZN4DBus11MessageIter10array_typeEv
libdbus-c++-1.so.0:_ZN4DBus11MessageIter10get_doubleEv
libdbus-c++-1.so.0:_ZN4DBus11MessageIter10get_stringEv
libdbus-c++-1.so.0:_ZN4DBus11MessageIter10get_uint16Ev
libdbus-c++-1.so.0:_ZN4DBus11MessageIter10get_uint32Ev
libdbus-c++-1.so.0:_ZN4DBus11MessageIter10get_uint64Ev
libdbus-c++-1.so.0:_ZN4DBus11MessageIter10new_structEv
libdbus-c++-1.so.0:_ZN4DBus11MessageIter11append_boolEb
libdbus-c++-1.so.0:_ZN4DBus11MessageIter11append_byteEh
libdbus-c++-1.so.0:_ZN4DBus11MessageIter11append_pathEPKc
libdbus-c++-1.so.0:_ZN4DBus11MessageIter11new_variantEPKc
libdbus-c++-1.so.0:_ZN4DBus11MessageIter12append_arrayEcPKvm
libdbus-c++-1.so.0:_ZN4DBus11MessageIter12append_int16Es
libdbus-c++-1.so.0:_ZN4DBus11MessageIter12append_int32Ei
libdbus-c++-1.so.0:_ZN4DBus11MessageIter12append_int64Ex
libdbus-c++-1.so.0:_ZN4DBus11MessageIter13append_doubleEd
libdbus-c++-1.so.0:_ZN4DBus11MessageIter13append_stringEPKc
libdbus-c++-1.so.0:_ZN4DBus11MessageIter13append_uint16Et
libdbus-c++-1.so.0:_ZN4DBus11MessageIter13append_uint32Ej
libdbus-c++-1.so.0:_ZN4DBus11MessageIter13append_uint64Ey
libdbus-c++-1.so.0:_ZN4DBus11MessageIter13get_signatureEv
libdbus-c++-1.so.0:_ZN4DBus11MessageIter14new_dict_entryEv
libdbus-c++-1.so.0:_ZN4DBus11MessageIter15close_containerERS0_
libdbus-c++-1.so.0:_ZN4DBus11MessageIter16append_signatureEPKc
libdbus-c++-1.so.0:_ZN4DBus11MessageIter4typeEv
libdbus-c++-1.so.0:_ZN4DBus11MessageIter6at_endEv
libdbus-c++-1.so.0:_ZN4DBus11MessageIter7is_dictEv
libdbus-c++-1.so.0:_ZN4DBus11MessageIter7recurseEv
libdbus-c++-1.so.0:_ZN4DBus11MessageIter8get_boolEv
libdbus-c++-1.so.0:_ZN4DBus11MessageIter8get_byteEv
libdbus-c++-1.so.0:_ZN4DBus11MessageIter8get_pathEv
libdbus-c++-1.so.0:_ZN4DBus11MessageIter8has_nextEv
libdbus-c++-1.so.0:_ZN4DBus11MessageIter8is_arrayEv
libdbus-c++-1.so.0:_ZN4DBus11MessageIter9copy_dataERS0_
libdbus-c++-1.so.0:_ZN4DBus11MessageIter9get_arrayEPv
libdbus-c++-1.so.0:_ZN4DBus11MessageIter9get_int16Ev
libdbus-c++-1.so.0:_ZN4DBus11MessageIter9get_int32Ev
libdbus-c++-1.so.0:_ZN4DBus11MessageIter9get_int64Ev
libdbus-c++-1.so.0:_ZN4DBus11MessageIter9new_arrayEPKc
libdbus-c++-1.so.0:_ZN4DBus11MessageIterppEi
libdbus-c++-1.so.0:_ZN4DBus11MessageIterppEv
libdbus-c++-1.so.0:_ZN4DBus11ObjectProxy12register_objEv
libdbus-c++-1.so.0:_ZN4DBus11ObjectProxy14_invoke_methodERNS_11CallMessageE
libdbus-c++-1.so.0:_ZN4DBus11ObjectProxy14handle_messageERKNS_7MessageE
libdbus-c++-1.so.0:_ZN4DBus11ObjectProxy14unregister_objEb
libdbus-c++-1.so.0:_ZN4DBus11ObjectProxy22_invoke_method_noreplyERNS_11CallMessageE
libdbus-c++-1.so.0:_ZN4DBus11ObjectProxyC1ERNS_10ConnectionERKNS_4PathEPKc
libdbus-c++-1.so.0:_ZN4DBus11ObjectProxyC2ERNS_10ConnectionERKNS_4PathEPKc
libdbus-c++-1.so.0:_ZN4DBus11ObjectProxyD0Ev
libdbus-c++-1.so.0:_ZN4DBus11ObjectProxyD1Ev
libdbus-c++-1.so.0:_ZN4DBus11ObjectProxyD2Ev
libdbus-c++-1.so.0:_ZN4DBus11PendingCall11steal_replyEv
libdbus-c++-1.so.0:_ZN4DBus11PendingCall4dataEPv
libdbus-c++-1.so.0:_ZN4DBus11PendingCall4dataEv
libdbus-c++-1.so.0:_ZN4DBus11PendingCall4slotEv
libdbus-c++-1.so.0:_ZN4DBus11PendingCall5blockEv
libdbus-c++-1.so.0:_ZN4DBus11PendingCall6cancelEv
libdbus-c++-1.so.0:_ZN4DBus11PendingCall9completedEv
libdbus-c++-1.so.0:_ZN4DBus11PendingCallC1EPNS0_7PrivateE
libdbus-c++-1.so.0:_ZN4DBus11PendingCallC1ERKS0_
libdbus-c++-1.so.0:_ZN4DBus11PendingCallC2EPNS0_7PrivateE
libdbus-c++-1.so.0:_ZN4DBus11PendingCallC2ERKS0_
libdbus-c++-1.so.0:_ZN4DBus11PendingCallD0Ev
libdbus-c++-1.so.0:_ZN4DBus11PendingCallD1Ev
libdbus-c++-1.so.0:_ZN4DBus11PendingCallD2Ev
libdbus-c++-1.so.0:_ZN4DBus11PendingCallaSERKS0_
libdbus-c++-1.so.0:_ZN4DBus12DefaultMutex4lockEv
libdbus-c++-1.so.0:_ZN4DBus12DefaultMutex6unlockEv
libdbus-c++-1.so.0:_ZN4DBus12DefaultMutexC1Eb
libdbus-c++-1.so.0:_ZN4DBus12DefaultMutexC1Ev
libdbus-c++-1.so.0:_ZN4DBus12DefaultMutexC2Eb
libdbus-c++-1.so.0:_ZN4DBus12DefaultMutexC2Ev
libdbus-c++-1.so.0:_ZN4DBus12DefaultMutexD1Ev
libdbus-c++-1.so.0:_ZN4DBus12DefaultMutexD2Ev
libdbus-c++-1.so.0:_ZN4DBus12DefaultWatchC1EiiPNS_15DefaultMainLoopE
libdbus-c++-1.so.0:_ZN4DBus12DefaultWatchC2EiiPNS_15DefaultMainLoopE
libdbus-c++-1.so.0:_ZN4DBus12DefaultWatchD0Ev
libdbus-c++-1.so.0:_ZN4DBus12DefaultWatchD1Ev
libdbus-c++-1.so.0:_ZN4DBus12DefaultWatchD2Ev
libdbus-c++-1.so.0:_ZN4DBus12ErrorMessage4nameEPKc
libdbus-c++-1.so.0:_ZN4DBus12ErrorMessageC1ERKNS_7MessageEPKcS5_
libdbus-c++-1.so.0:_ZN4DBus12ErrorMessageC1Ev
libdbus-c++-1.so.0:_ZN4DBus12ErrorMessageC2ERKNS_7MessageEPKcS5_
libdbus-c++-1.so.0:_ZN4DBus12ErrorMessageC2Ev
libdbus-c++-1.so.0:_ZN4DBus13BusDispatcher11add_timeoutEPNS_7Timeout8InternalE
libdbus-c++-1.so.0:_ZN4DBus13BusDispatcher11rem_timeoutEPNS_7TimeoutE
libdbus-c++-1.so.0:_ZN4DBus13BusDispatcher11watch_readyERNS_12DefaultWatchE
libdbus-c++-1.so.0:_ZN4DBus13BusDispatcher12do_iterationEv
libdbus-c++-1.so.0:_ZN4DBus13BusDispatcher15timeout_expiredERNS_14DefaultTimeoutE
libdbus-c++-1.so.0:_ZN4DBus13BusDispatcher5enterEv
libdbus-c++-1.so.0:_ZN4DBus13BusDispatcher5leaveEv
libdbus-c++-1.so.0:_ZN4DBus13BusDispatcher8add_pipeEPFvPKvPvjES2_
libdbus-c++-1.so.0:_ZN4DBus13BusDispatcher8del_pipeEPNS_4PipeE
libdbus-c++-1.so.0:_ZN4DBus13BusDispatcher9add_watchEPNS_5Watch8InternalE
libdbus-c++-1.so.0:_ZN4DBus13BusDispatcher9rem_watchEPNS_5WatchE
libdbus-c++-1.so.0:_ZN4DBus13BusDispatcherC1Ev
libdbus-c++-1.so.0:_ZN4DBus13BusDispatcherC2Ev
libdbus-c++-1.so.0:_ZN4DBus13ObjectAdaptor10return_nowEPNS0_12ContinuationE
libdbus-c++-1.so.0:_ZN4DBus13ObjectAdaptor12ContinuationC1ERNS_10ConnectionERKNS_11CallMessageEPKNS_3TagE
libdbus-c++-1.so.0:_ZN4DBus13ObjectAdaptor12ContinuationC2ERNS_10ConnectionERKNS_11CallMessageEPKNS_3TagE
libdbus-c++-1.so.0:_ZN4DBus13ObjectAdaptor12_emit_signalERNS_13SignalMessageE
libdbus-c++-1.so.0:_ZN4DBus13ObjectAdaptor12register_objEv
libdbus-c++-1.so.0:_ZN4DBus13ObjectAdaptor12return_errorEPNS0_12ContinuationENS_5ErrorE
libdbus-c++-1.so.0:_ZN4DBus13ObjectAdaptor12return_laterEPKNS_3TagE
libdbus-c++-1.so.0:_ZN4DBus13ObjectAdaptor14handle_messageERKNS_7MessageE
libdbus-c++-1.so.0:_ZN4DBus13ObjectAdaptor14unregister_objEb
libdbus-c++-1.so.0:_ZN4DBus13ObjectAdaptor16from_path_prefixERKNSt7__cxx1112basic_stringIcSt11char_traitsIcESaIcEEE
libdbus-c++-1.so.0:_ZN4DBus13ObjectAdaptor17find_continuationEPKNS_3TagE
libdbus-c++-1.so.0:_ZN4DBus13ObjectAdaptor23child_nodes_from_prefixERKNSt7__cxx1112basic_stringIcSt11char_traitsIcESaIcEEE
libdbus-c++-1.so.0:_ZN4DBus13ObjectAdaptor7Private21message_function_stubEP14DBusConnectionP11DBusMessagePv
libdbus-c++-1.so.0:_ZN4DBus13ObjectAdaptor7Private24unregister_function_stubEP14DBusConnectionPv
libdbus-c++-1.so.0:_ZN4DBus13ObjectAdaptor9from_pathERKNS_4PathE
libdbus-c++-1.so.0:_ZN4DBus13ObjectAdaptorC1ERNS_10ConnectionERKNS_4PathE
libdbus-c++-1.so.0:_ZN4DBus13ObjectAdaptorC2ERNS_10ConnectionERKNS_4PathE
libdbus-c++-1.so.0:_ZN4DBus13ObjectAdaptorD0Ev
libdbus-c++-1.so.0:_ZN4DBus13ObjectAdaptorD1Ev
libdbus-c++-1.so.0:_ZN4DBus13ObjectAdaptorD2Ev
libdbus-c++-1.so.0:_ZN4DBus13ReturnMessageC1ERKNS_11CallMessageE
libdbus-c++-1.so.0:_ZN4DBus13ReturnMessageC2ERKNS_11CallMessageE
libdbus-c++-1.so.0:_ZN4DBus13SignalMessage4pathEPKc
libdbus-c++-1.so.0:_ZN4DBus13SignalMessage6memberEPKc
libdbus-c++-1.so.0:_ZN4DBus13SignalMessage9interfaceEPKc
libdbus-c++-1.so.0:_ZN4DBus13SignalMessageC1EPKc
libdbus-c++-1.so.0:_ZN4DBus13SignalMessageC1EPKcS2_S2_
libdbus-c++-1.so.0:_ZN4DBus13SignalMessageC2EPKc
libdbus-c++-1.so.0:_ZN4DBus13SignalMessageC2EPKcS2_S2_
libdbus-c++-1.so.0:_ZN4DBus14DefaultTimeoutC1EibPNS_15DefaultMainLoopE
libdbus-c++-1.so.0:_ZN4DBus14DefaultTimeoutC2EibPNS_15DefaultMainLoopE
libdbus-c++-1.so.0:_ZN4DBus14DefaultTimeoutD0Ev
libdbus-c++-1.so.0:_ZN4DBus14DefaultTimeoutD1Ev
libdbus-c++-1.so.0:_ZN4DBus14DefaultTimeoutD2Ev
libdbus-c++-1.so.0:_ZN4DBus14InterfaceProxy13invoke_methodERKNS_11CallMessageE
libdbus-c++-1.so.0:_ZN4DBus14InterfaceProxy15dispatch_signalERKNS_13SignalMessageE
libdbus-c++-1.so.0:_ZN4DBus14InterfaceProxy21invoke_method_noreplyERKNS_11CallMessageE
libdbus-c++-1.so.0:_ZN4DBus14InterfaceProxyC1ERKNSt7__cxx1112basic_stringIcSt11char_traitsIcESaIcEEE
libdbus-c++-1.so.0:_ZN4DBus14InterfaceProxyC2ERKNSt7__cxx1112basic_stringIcSt11char_traitsIcESaIcEEE
libdbus-c++-1.so.0:_ZN4DBus15DefaultMainLoop8dispatchEv
libdbus-c++-1.so.0:_ZN4DBus15DefaultMainLoopC1Ev
libdbus-c++-1.so.0:_ZN4DBus15DefaultMainLoopC2Ev
libdbus-c++-1.so.0:_ZN4DBus15DefaultMainLoopD0Ev
libdbus-c++-1.so.0:_ZN4DBus15DefaultMainLoopD1Ev
libdbus-c++-1.so.0:_ZN4DBus15DefaultMainLoopD2Ev
libdbus-c++-1.so.0:_ZN4DBus15PropertiesProxy3GetERKNSt7__cxx1112basic_stringIcSt11char_traitsIcESaIcEEES8_
libdbus-c++-1.so.0:_ZN4DBus15PropertiesProxy3SetERKNSt7__cxx1112basic_stringIcSt11char_traitsIcESaIcEEES8_RKNS_7VariantE
libdbus-c++-1.so.0:_ZN4DBus15PropertiesProxyC1Ev
libdbus-c++-1.so.0:_ZN4DBus15PropertiesProxyC2Ev
libdbus-c++-1.so.0:_ZN4DBus15_init_threadingEv
libdbus-c++-1.so.0:_ZN4DBus16InterfaceAdaptor11emit_signalERKNS_13SignalMessageE
libdbus-c++-1.so.0:_ZN4DBus16InterfaceAdaptor12get_propertyERKNSt7__cxx1112basic_stringIcSt11char_traitsIcESaIcEEE
libdbus-c++-1.so.0:_ZN4DBus16InterfaceAdaptor12set_propertyERKNSt7__cxx1112basic_stringIcSt11char_traitsIcESaIcEEERNS_7VariantE
libdbus-c++-1.so.0:_ZN4DBus16InterfaceAdaptor15dispatch_methodERKNS_11CallMessageE
libdbus-c++-1.so.0:_ZN4DBus16InterfaceAdaptorC1ERKNSt7__cxx1112basic_stringIcSt11char_traitsIcESaIcEEE
libdbus-c++-1.so.0:_ZN4DBus16InterfaceAdaptorC2ERKNSt7__cxx1112basic_stringIcSt11char_traitsIcESaIcEEE
libdbus-c++-1.so.0:_ZN4DBus17PropertiesAdaptor3GetERKNS_11CallMessageE
libdbus-c++-1.so.0:_ZN4DBus17PropertiesAdaptor3SetERKNS_11CallMessageE
libdbus-c++-1.so.0:_ZN4DBus17PropertiesAdaptorC1Ev
libdbus-c++-1.so.0:_ZN4DBus17PropertiesAdaptorC2Ev
libdbus-c++-1.so.0:_ZN4DBus19IntrospectableProxy10IntrospectB5cxx11Ev
libdbus-c++-1.so.0:_ZN4DBus19IntrospectableProxyC1Ev
libdbus-c++-1.so.0:_ZN4DBus19IntrospectableProxyC2Ev
libdbus-c++-1.so.0:_ZN4DBus21IntrospectableAdaptor10IntrospectERKNS_11CallMessageE
libdbus-c++-1.so.0:_ZN4DBus21IntrospectableAdaptorC1Ev
libdbus-c++-1.so.0:_ZN4DBus21IntrospectableAdaptorC2Ev
libdbus-c++-1.so.0:_ZN4DBus4Pipe4readEPvRj
libdbus-c++-1.so.0:_ZN4DBus4Pipe5writeEPKvj
libdbus-c++-1.so.0:_ZN4DBus4Pipe6signalEv
libdbus-c++-1.so.0:_ZN4DBus4PipeC1EPFvPKvPvjES2_
libdbus-c++-1.so.0:_ZN4DBus4PipeC2EPFvPKvPvjES2_
libdbus-c++-1.so.0:_ZN4DBus5Error3setEPKcS2_
libdbus-c++-1.so.0:_ZN4DBus5ErrorC1EPKcS2_
libdbus-c++-1.so.0:_ZN4DBus5ErrorC1ERNS_13InternalErrorE
libdbus-c++-1.so.0:_ZN4DBus5ErrorC1ERNS_7MessageE
libdbus-c++-1.so.0:_ZN4DBus5ErrorC1Ev
libdbus-c++-1.so.0:_ZN4DBus5ErrorC2EPKcS2_
libdbus-c++-1.so.0:_ZN4DBus5ErrorC2ERNS_13InternalErrorE
libdbus-c++-1.so.0:_ZN4DBus5ErrorC2ERNS_7MessageE
libdbus-c++-1.so.0:_ZN4DBus5ErrorC2Ev
libdbus-c++-1.so.0:_ZN4DBus5ErrorD0Ev
libdbus-c++-1.so.0:_ZN4DBus5ErrorD1Ev
libdbus-c++-1.so.0:_ZN4DBus5ErrorD2Ev
libdbus-c++-1.so.0:_ZN4DBus5Watch6handleEi
libdbus-c++-1.so.0:_ZN4DBus5WatchC1EPNS0_8InternalE
libdbus-c++-1.so.0:_ZN4DBus5WatchC2EPNS0_8InternalE
libdbus-c++-1.so.0:_ZN4DBus6Object11set_timeoutEi
libdbus-c++-1.so.0:_ZN4DBus6ObjectC1ERNS_10ConnectionERKNS_4PathEPKc
libdbus-c++-1.so.0:_ZN4DBus6ObjectC2ERNS_10ConnectionERKNS_4PathEPKc
libdbus-c++-1.so.0:_ZN4DBus6ObjectD0Ev
libdbus-c++-1.so.0:_ZN4DBus6ObjectD1Ev
libdbus-c++-1.so.0:_ZN4DBus6ObjectD2Ev
libdbus-c++-1.so.0:_ZN4DBus6Server10disconnectEv
libdbus-c++-1.so.0:_ZN4DBus6Server5setupEPNS_10DispatcherE
libdbus-c++-1.so.0:_ZN4DBus6ServerC1EPKc
libdbus-c++-1.so.0:_ZN4DBus6ServerC2EPKc
libdbus-c++-1.so.0:_ZN4DBus6ServerD0Ev
libdbus-c++-1.so.0:_ZN4DBus6ServerD1Ev
libdbus-c++-1.so.0:_ZN4DBus6ServerD2Ev
libdbus-c++-1.so.0:_ZN4DBus7Message11destinationEPKc
libdbus-c++-1.so.0:_ZN4DBus7Message12reply_serialEi
libdbus-c++-1.so.0:_ZN4DBus7Message4copyEv
libdbus-c++-1.so.0:_ZN4DBus7Message6appendEiz
libdbus-c++-1.so.0:_ZN4DBus7Message6senderEPKc
libdbus-c++-1.so.0:_ZN4DBus7Message6writerEv
libdbus-c++-1.so.0:_ZN4DBus7Message9terminateEv
libdbus-c++-1.so.0:_ZN4DBus7MessageC1EPNS0_7PrivateEb
libdbus-c++-1.so.0:_ZN4DBus7MessageC1ERKS0_
libdbus-c++-1.so.0:_ZN4DBus7MessageC1Ev
libdbus-c++-1.so.0:_ZN4DBus7MessageC2EPNS0_7PrivateEb
libdbus-c++-1.so.0:_ZN4DBus7MessageC2ERKS0_
libdbus-c++-1.so.0:_ZN4DBus7MessageC2Ev
libdbus-c++-1.so.0:_ZN4DBus7MessageD1Ev
libdbus-c++-1.so.0:_ZN4DBus7MessageD2Ev
libdbus-c++-1.so.0:_ZN4DBus7MessageaSERKS0_
libdbus-c++-1.so.0:_ZN4DBus7Timeout6handleEv
libdbus-c++-1.so.0:_ZN4DBus7TimeoutC1EPNS0_8InternalE
libdbus-c++-1.so.0:_ZN4DBus7TimeoutC2EPNS0_8InternalE
libdbus-c++-1.so.0:_ZN4DBus7Variant5clearEv
libdbus-c++-1.so.0:_ZN4DBus7VariantC1ERNS_11MessageIterE
libdbus-c++-1.so.0:_ZN4DBus7VariantC1Ev
libdbus-c++-1.so.0:_ZN4DBus7VariantC2ERNS_11MessageIterE
libdbus-c++-1.so.0:_ZN4DBus7VariantC2Ev
libdbus-c++-1.so.0:_ZN4DBus7VariantaSERKS0_
libdbus-c++-1.so.0:_ZN4DBus8BusWatch6toggleEv
libdbus-c++-1.so.0:_ZN4DBus8BusWatchC1EPNS_5Watch8InternalEPNS_13BusDispatcherE
libdbus-c++-1.so.0:_ZN4DBus8BusWatchC2EPNS_5Watch8InternalEPNS_13BusDispatcherE
libdbus-c++-1.so.0:_ZN4DBus9InterfaceC1ERKNSt7__cxx1112basic_stringIcSt11char_traitsIcESaIcEEE
libdbus-c++-1.so.0:_ZN4DBus9InterfaceC2ERKNSt7__cxx1112basic_stringIcSt11char_traitsIcESaIcEEE
libdbus-c++-1.so.0:_ZN4DBus9InterfaceD0Ev
libdbus-c++-1.so.0:_ZN4DBus9InterfaceD1Ev
libdbus-c++-1.so.0:_ZN4DBus9InterfaceD2Ev
libdbus-c++-1.so.0:_ZN4DBus9ProxyBase14find_interfaceERKNSt7__cxx1112basic_stringIcSt11char_traitsIcESaIcEEE
libdbus-c++-1.so.0:_ZNK4DBus10Connection11unique_nameEv
libdbus-c++-1.so.0:_ZNK4DBus10Connection9connectedEv
libdbus-c++-1.so.0:_ZNK4DBus10ConnectioneqERKS0_
libdbus-c++-1.so.0:_ZNK4DBus11CallMessage10path_splitEv
libdbus-c++-1.so.0:_ZNK4DBus11CallMessage4pathEv
libdbus-c++-1.so.0:_ZNK4DBus11CallMessage6memberEv
libdbus-c++-1.so.0:_ZNK4DBus11CallMessage9interfaceEv
libdbus-c++-1.so.0:_ZNK4DBus11CallMessage9signatureEv
libdbus-c++-1.so.0:_ZNK4DBus11CallMessageeqERKS0_
libdbus-c++-1.so.0:_ZNK4DBus11MessageIter9signatureEv
libdbus-c++-1.so.0:_ZNK4DBus12ErrorMessage4nameEv
libdbus-c++-1.so.0:_ZNK4DBus12ErrorMessageeqERKS0_
libdbus-c++-1.so.0:_ZNK4DBus13ReturnMessage9signatureEv
libdbus-c++-1.so.0:_ZNK4DBus13SignalMessage10path_splitEv
libdbus-c++-1.so.0:_ZNK4DBus13SignalMessage4pathEv
libdbus-c++-1.so.0:_ZNK4DBus13SignalMessage6memberEv
libdbus-c++-1.so.0:_ZNK4DBus13SignalMessage9interfaceEv
libdbus-c++-1.so.0:_ZNK4DBus13SignalMessageeqERKS0_
libdbus-c++-1.so.0:_ZNK4DBus17PropertiesAdaptor10introspectEv
libdbus-c++-1.so.0:_ZNK4DBus21IntrospectableAdaptor10introspectEv
libdbus-c++-1.so.0:_ZNK4DBus5Error4nameEv
libdbus-c++-1.so.0:_ZNK4DBus5Error4whatEv
libdbus-c++-1.so.0:_ZNK4DBus5Error6is_setEv
libdbus-c++-1.so.0:_ZNK4DBus5Error7messageEv
libdbus-c++-1.so.0:_ZNK4DBus5Watch10descriptorEv
libdbus-c++-1.so.0:_ZNK4DBus5Watch5flagsEv
libdbus-c++-1.so.0:_ZNK4DBus5Watch7enabledEv
libdbus-c++-1.so.0:_ZNK4DBus6Server9listeningEv
libdbus-c++-1.so.0:_ZNK4DBus6ServereqERKS0_
libdbus-c++-1.so.0:_ZNK4DBus7Message11destinationEv
libdbus-c++-1.so.0:_ZNK4DBus7Message12reply_serialEv
libdbus-c++-1.so.0:_ZNK4DBus7Message4typeEv
libdbus-c++-1.so.0:_ZNK4DBus7Message6readerEv
libdbus-c++-1.so.0:_ZNK4DBus7Message6senderEv
libdbus-c++-1.so.0:_ZNK4DBus7Message6serialEv
libdbus-c++-1.so.0:_ZNK4DBus7Message8is_errorEv
libdbus-c++-1.so.0:_ZNK4DBus7Message9is_signalEPKcS2_
libdbus-c++-1.so.0:_ZNK4DBus7Timeout7enabledEv
libdbus-c++-1.so.0:_ZNK4DBus7Timeout8intervalEv
libdbus-c++-1.so.0:_ZNK4DBus7Variant9signatureEv
libdbus-c++-1.so.0:_ZTv0_n32_N4DBus11ObjectProxyD0Ev
libdbus-c++-1.so.0:_ZTv0_n32_N4DBus11ObjectProxyD1Ev
libdbus-c++-1.so.0:_ZTv0_n32_N4DBus13ObjectAdaptorD0Ev
libdbus-c++-1.so.0:_ZTv0_n32_N4DBus13ObjectAdaptorD1Ev
libdbus-c++-1.so.0:_ZTv0_n40_N4DBus11ObjectProxy14_invoke_methodERNS_11CallMessageE
libdbus-c++-1.so.0:_ZTv0_n40_N4DBus13ObjectAdaptor12_emit_signalERNS_13SignalMessageE
libdbus-c++-1.so.0:_ZTv0_n48_N4DBus11ObjectProxy22_invoke_method_noreplyERNS_11CallMessageE
libdbus-c++-1.so.0:_ZlsRN4DBus11MessageIterERKNS_7VariantE
libdbus-c++-1.so.0:_ZrsRN4DBus11MessageIterERNS_7VariantE
libdbus-c++-ecore-1.so.0:_ZN4DBus5Ecore10BusTimeout15timeout_handlerEPv
libdbus-c++-ecore-1.so.0:_ZN4DBus5Ecore10BusTimeout6toggleEv
libdbus-c++-ecore-1.so.0:_ZN4DBus5Ecore10BusTimeout7_enableEv
libdbus-c++-ecore-1.so.0:_ZN4DBus5Ecore10BusTimeout8_disableEv
libdbus-c++-ecore-1.so.0:_ZN4DBus5Ecore10BusTimeoutC1EPNS_7Timeout8InternalE
libdbus-c++-ecore-1.so.0:_ZN4DBus5Ecore10BusTimeoutC2EPNS_7Timeout8InternalE
libdbus-c++-ecore-1.so.0:_ZN4DBus5Ecore10BusTimeoutD0Ev
libdbus-c++-ecore-1.so.0:_ZN4DBus5Ecore10BusTimeoutD1Ev
libdbus-c++-ecore-1.so.0:_ZN4DBus5Ecore10BusTimeoutD2Ev
libdbus-c++-ecore-1.so.0:_ZN4DBus5Ecore13BusDispatcher11add_timeoutEPNS_7Timeout8InternalE
libdbus-c++-ecore-1.so.0:_ZN4DBus5Ecore13BusDispatcher11rem_timeoutEPNS_7TimeoutE
libdbus-c++-ecore-1.so.0:_ZN4DBus5Ecore13BusDispatcher5checkEPvP17_Ecore_Fd_Handler
libdbus-c++-ecore-1.so.0:_ZN4DBus5Ecore13BusDispatcher9add_watchEPNS_5Watch8InternalE
libdbus-c++-ecore-1.so.0:_ZN4DBus5Ecore13BusDispatcher9rem_watchEPNS_5WatchE
libdbus-c++-ecore-1.so.0:_ZN4DBus5Ecore13BusDispatcherC1Ev
libdbus-c++-ecore-1.so.0:_ZN4DBus5Ecore13BusDispatcherC2Ev
libdbus-c++-ecore-1.so.0:_ZN4DBus5Ecore8BusWatch14watch_dispatchEPvP17_Ecore_Fd_Handler
libdbus-c++-ecore-1.so.0:_ZN4DBus5Ecore8BusWatch4dataEPNS0_13BusDispatcherE
libdbus-c++-ecore-1.so.0:_ZN4DBus5Ecore8BusWatch6toggleEv
libdbus-c++-ecore-1.so.0:_ZN4DBus5Ecore8BusWatch7_enableEv
libdbus-c++-ecore-1.so.0:_ZN4DBus5Ecore8BusWatch8_disableEv
libdbus-c++-ecore-1.so.0:_ZN4DBus5Ecore8BusWatchC1EPNS_5Watch8InternalE
libdbus-c++-ecore-1.so.0:_ZN4DBus5Ecore8BusWatchC2EPNS_5Watch8InternalE
libdbus-c++-ecore-1.so.0:_ZN4DBus5Ecore8BusWatchD0Ev
libdbus-c++-ecore-1.so.0:_ZN4DBus5Ecore8BusWatchD1Ev
libdbus-c++-ecore-1.so.0:_ZN4DBus5Ecore8BusWatchD2Ev
libdbus-c++-glib-1.so.0:_ZN4DBus4Glib10BusTimeout15timeout_handlerEPv
libdbus-c++-glib-1.so.0:_ZN4DBus4Glib10BusTimeout6toggleEv
libdbus-c++-glib-1.so.0:_ZN4DBus4Glib10BusTimeout7_enableEv
libdbus-c++-glib-1.so.0:_ZN4DBus4Glib10BusTimeout8_disableEv
libdbus-c++-glib-1.so.0:_ZN4DBus4Glib10BusTimeoutC1EPNS_7Timeout8InternalEP13_GMainContexti
libdbus-c++-glib-1.so.0:_ZN4DBus4Glib10BusTimeoutC2EPNS_7Timeout8InternalEP13_GMainContexti
libdbus-c++-glib-1.so.0:_ZN4DBus4Glib10BusTimeoutD0Ev
libdbus-c++-glib-1.so.0:_ZN4DBus4Glib10BusTimeoutD1Ev
libdbus-c++-glib-1.so.0:_ZN4DBus4Glib10BusTimeoutD2Ev
libdbus-c++-glib-1.so.0:_ZN4DBus4Glib13BusDispatcher11add_timeoutEPNS_7Timeout8InternalE
libdbus-c++-glib-1.so.0:_ZN4DBus4Glib13BusDispatcher11rem_timeoutEPNS_7TimeoutE
libdbus-c++-glib-1.so.0:_ZN4DBus4Glib13BusDispatcher12set_priorityEi
libdbus-c++-glib-1.so.0:_ZN4DBus4Glib13BusDispatcher6attachEP13_GMainContext
libdbus-c++-glib-1.so.0:_ZN4DBus4Glib13BusDispatcher9add_watchEPNS_5Watch8InternalE
libdbus-c++-glib-1.so.0:_ZN4DBus4Glib13BusDispatcher9rem_watchEPNS_5WatchE
libdbus-c++-glib-1.so.0:_ZN4DBus4Glib13BusDispatcherC1Ev
libdbus-c++-glib-1.so.0:_ZN4DBus4Glib13BusDispatcherC2Ev
libdbus-c++-glib-1.so.0:_ZN4DBus4Glib13BusDispatcherD0Ev
libdbus-c++-glib-1.so.0:_ZN4DBus4Glib13BusDispatcherD1Ev
libdbus-c++-glib-1.so.0:_ZN4DBus4Glib13BusDispatcherD2Ev
libdbus-c++-glib-1.so.0:_ZN4DBus4Glib8BusWatch13watch_handlerEPv
libdbus-c++-glib-1.so.0:_ZN4DBus4Glib8BusWatch6toggleEv
libdbus-c++-glib-1.so.0:_ZN4DBus4Glib8BusWatch7_enableEv
libdbus-c++-glib-1.so.0:_ZN4DBus4Glib8BusWatch8_disableEv
libdbus-c++-glib-1.so.0:_ZN4DBus4Glib8BusWatchC1EPNS_5Watch8InternalEP13_GMainContexti
libdbus-c++-glib-1.so.0:_ZN4DBus4Glib8BusWatchC2EPNS_5Watch8InternalEP13_GMainContexti
libdbus-c++-glib-1.so.0:_ZN4DBus4Glib8BusWatchD0Ev
libdbus-c++-glib-1.so.0:_ZN4DBus4Glib8BusWatchD1Ev
libdbus-c++-glib-1.so.0:_ZN4DBus4Glib8BusWatchD2Ev
